; Function Attrs: mustprogress uwtable
define hidden void @_ZN7testing8internal27PrettyUnitTestResultPrinter15OnTestCaseStartERKNS_8TestCaseE(ptr nocapture nonnull readnone align 8 %this, ptr noundef nonnull align 8 dereferenceable(248) %test_case) unnamed_addr #3 align 2 personality ptr @__gxx_personality_v0 {
entry:
  %counts = alloca %"class.std::__cxx11::basic_string", align 8
  %test_info_list_.i = getelementptr inbounds i8, ptr %test_case, i64 48
  %0 = load ptr, ptr %test_info_list_.i, align 8
  %_M_finish.i.i.i = getelementptr inbounds i8, ptr %test_case, i64 56
  %1 = load ptr, ptr %_M_finish.i.i.i, align 8
  %cmp.i.not5.i.i = icmp eq ptr %0, %1
  br i1 %cmp.i.not5.i.i, label %_ZNK7testing8TestCase17test_to_run_countEv.exit, label %for.body.i.i

for.body.i.i:                                     ; preds = %entry, %for.body.i.i
  %count.07.i.i = phi i32 [ %spec.select.i.i, %for.body.i.i ], [ 0, %entry ]
  %it.sroa.0.06.i.i = phi ptr [ %incdec.ptr.i.i.i, %for.body.i.i ], [ %0, %entry ]
  %2 = load ptr, ptr %it.sroa.0.06.i.i, align 8
  %should_run_.i.i.i = getelementptr inbounds i8, ptr %2, i64 128
  %3 = load i8, ptr %should_run_.i.i.i, align 8
  %4 = and i8 %3, 1
  %inc.i.i = zext nneg i8 %4 to i32
  %spec.select.i.i = add nuw nsw i32 %count.07.i.i, %inc.i.i
  %incdec.ptr.i.i.i = getelementptr inbounds i8, ptr %it.sroa.0.06.i.i, i64 8
  %cmp.i.not.i.i = icmp eq ptr %incdec.ptr.i.i.i, %1
  br i1 %cmp.i.not.i.i, label %_ZNK7testing8TestCase17test_to_run_countEv.exit, label %for.body.i.i, !llvm.loop !39

_ZNK7testing8TestCase17test_to_run_countEv.exit:  ; preds = %for.body.i.i, %entry
  %count.0.lcssa.i.i = phi i32 [ 0, %entry ], [ %spec.select.i.i, %for.body.i.i ]
  call fastcc void @_ZN7testingL19FormatCountableNounB5cxx11EiPKcS1_(ptr noalias nonnull align 8 %counts, i32 noundef %count.0.lcssa.i.i, ptr noundef nonnull @.str.151, ptr noundef nonnull @.str.152)
  call void (i32, ptr, ...) @_ZN7testing8internal13ColoredPrintfENS0_10GTestColorEPKcz(i32 noundef 2, ptr noundef nonnull @.str.149)
  %call2 = call noundef ptr @_ZNKSt7__cxx1112basic_stringIcSt11char_traitsIcESaIcEE5c_strEv(ptr noundef nonnull align 8 dereferenceable(32) %counts) #47
  %name_.i = getelementptr inbounds i8, ptr %test_case, i64 8
  %call.i = call noundef ptr @_ZNKSt7__cxx1112basic_stringIcSt11char_traitsIcESaIcEE5c_strEv(ptr noundef nonnull align 8 dereferenceable(32) %name_.i) #47
  %call6 = call i32 (ptr, ...) @printf(ptr noundef nonnull dereferenceable(1) @.str.153, ptr noundef %call2, ptr noundef %call.i)
  %type_param_.i = getelementptr inbounds i8, ptr %test_case, i64 40
  %5 = load ptr, ptr %type_param_.i, align 8
  %cmp.not.i = icmp eq ptr %5, null
  br i1 %cmp.not.i, label %if.then, label %_ZNK7testing8TestCase10type_paramEv.exit

_ZNK7testing8TestCase10type_paramEv.exit:         ; preds = %_ZNK7testing8TestCase17test_to_run_countEv.exit
  %call4.i = call noundef ptr @_ZNKSt7__cxx1112basic_stringIcSt11char_traitsIcESaIcEE5c_strEv(ptr noundef nonnull align 8 dereferenceable(32) %5) #47
  %cmp = icmp eq ptr %call4.i, null
  br i1 %cmp, label %if.then, label %if.else

if.then:                                          ; preds = %_ZNK7testing8TestCase17test_to_run_countEv.exit, %_ZNK7testing8TestCase10type_paramEv.exit
  %putchar = call i32 @putchar(i32 10)
  br label %if.end

if.else:                                          ; preds = %_ZNK7testing8TestCase10type_paramEv.exit
  %6 = load ptr, ptr %type_param_.i, align 8
  %cmp.not.i5 = icmp eq ptr %6, null
  br i1 %cmp.not.i5, label %_ZNK7testing8TestCase10type_paramEv.exit9, label %if.then.i6

if.then.i6:                                       ; preds = %if.else
  %call4.i7 = call noundef ptr @_ZNKSt7__cxx1112basic_stringIcSt11char_traitsIcESaIcEE5c_strEv(ptr noundef nonnull align 8 dereferenceable(32) %6) #47
  br label %_ZNK7testing8TestCase10type_paramEv.exit9

_ZNK7testing8TestCase10type_paramEv.exit9:        ; preds = %if.else, %if.then.i6
  %retval.0.i8 = phi ptr [ %call4.i7, %if.then.i6 ], [ null, %if.else ]
  %call14 = call i32 (ptr, ...) @printf(ptr noundef nonnull dereferenceable(1) @.str.154, ptr noundef nonnull @_ZN7testing8internalL15kTypeParamLabelE, ptr noundef %retval.0.i8)
  br label %if.end

if.end:                                           ; preds = %_ZNK7testing8TestCase10type_paramEv.exit9, %if.then
  %7 = load ptr, ptr @stdout, align 8
  %call16 = call i32 @fflush(ptr noundef %7)
  call void @_ZNSt7__cxx1112basic_stringIcSt11char_traitsIcESaIcEED1Ev(ptr noundef nonnull align 8 dereferenceable(32) %counts) #47
  ret void
}